target datalayout = "e-m:e-p270:32:32-p271:32:32-p272:64:64-i64:64-i128:128-f80:128-n8:16:32:64-S128"
target triple = "x86_64-pc-linux-gnu"

%struct.lua_State = type { %struct.GCRef, i8, i8, i8, i8, %struct.MRef, %struct.GCRef, ptr, ptr, %struct.MRef, %struct.MRef, %struct.GCRef, %struct.GCRef, ptr, i32 }
%struct.MRef = type { i64 }
%struct.GCRef = type { i64 }
%union.TValue = type { i64 }
%struct.GCproto = type { %struct.GCRef, i8, i8, i8, i8, i32, i32, %struct.GCRef, %struct.MRef, %struct.MRef, i32, i32, i32, i8, i8, i16, %struct.GCRef, i32, i32, %struct.MRef, %struct.MRef, %struct.MRef }

@.str.9 = private unnamed_addr constant [24 x i8] c"store to dead GC object\00", align 1

; Function Attrs: alwaysinline nounwind uwtable
define internal void @checklivetv(ptr noundef %0, ptr noundef %1, ptr noundef %2) #5 {
  %4 = alloca ptr, align 8
  %5 = alloca ptr, align 8
  %6 = alloca ptr, align 8
  store ptr %0, ptr %4, align 8, !tbaa !4
  store ptr %1, ptr %5, align 8, !tbaa !56
  store ptr %2, ptr %6, align 8, !tbaa !41
  ret void
}

; Function Attrs: alwaysinline nounwind uwtable
define internal void @setgcVraw(ptr noundef %0, ptr noundef %1, i32 noundef %2) #5 {
  %4 = alloca ptr, align 8
  %5 = alloca ptr, align 8
  %6 = alloca i32, align 4
  store ptr %0, ptr %4, align 8, !tbaa !56
  store ptr %1, ptr %5, align 8, !tbaa !57
  store i32 %2, ptr %6, align 4, !tbaa !35
  %7 = load ptr, ptr %5, align 8, !tbaa !57
  %8 = ptrtoint ptr %7 to i64
  %9 = load i32, ptr %6, align 4, !tbaa !35
  %10 = zext i32 %9 to i64
  %11 = shl i64 %10, 47
  %12 = or i64 %8, %11
  %13 = load ptr, ptr %4, align 8, !tbaa !56
  %14 = getelementptr inbounds nuw %struct.GCRef, ptr %13, i32 0, i32 0
  store i64 %12, ptr %14, align 8, !tbaa !37
  ret void
}

; Function Attrs: alwaysinline nounwind uwtable
define internal void @setgcV(ptr noundef %0, ptr noundef %1, ptr noundef %2, i32 noundef %3) #5 {
  %5 = alloca ptr, align 8
  %6 = alloca ptr, align 8
  %7 = alloca ptr, align 8
  %8 = alloca i32, align 4
  store ptr %0, ptr %5, align 8, !tbaa !4
  store ptr %1, ptr %6, align 8, !tbaa !56
  store ptr %2, ptr %7, align 8, !tbaa !57
  store i32 %3, ptr %8, align 4, !tbaa !35
  %9 = load ptr, ptr %6, align 8, !tbaa !56
  %10 = load ptr, ptr %7, align 8, !tbaa !57
  %11 = load i32, ptr %8, align 4, !tbaa !35
  call void @setgcVraw(ptr noundef %9, ptr noundef %10, i32 noundef %11)
  %12 = load ptr, ptr %5, align 8, !tbaa !4
  %13 = load ptr, ptr %6, align 8, !tbaa !56
  call void @checklivetv(ptr noundef %12, ptr noundef %13, ptr noundef @.str.9)
  ret void
}

; Function Attrs: alwaysinline nounwind uwtable
define internal void @setstrV(ptr noundef %0, ptr noundef %1, ptr noundef %2) #5 {
  %4 = alloca ptr, align 8
  %5 = alloca ptr, align 8
  %6 = alloca ptr, align 8
  store ptr %0, ptr %4, align 8, !tbaa !4
  store ptr %1, ptr %5, align 8, !tbaa !56
  store ptr %2, ptr %6, align 8, !tbaa !39
  %7 = load ptr, ptr %4, align 8, !tbaa !4
  %8 = load ptr, ptr %5, align 8, !tbaa !56
  %9 = load ptr, ptr %6, align 8, !tbaa !39
  call void @setgcV(ptr noundef %7, ptr noundef %8, ptr noundef %9, i32 noundef -5)
  ret void
}

; Function Attrs: nounwind uwtable
define internal i32 @lj_cf_jit_util_funcuvname(ptr noundef %0) #0 {
  %2 = alloca i32, align 4
  %3 = alloca ptr, align 8
  %4 = alloca ptr, align 8
  %5 = alloca i32, align 4
  %6 = alloca i32, align 4
  store ptr %0, ptr %3, align 8, !tbaa !4
  call void @llvm.lifetime.start.p0(i64 8, ptr %4) #9
  %7 = load ptr, ptr %3, align 8, !tbaa !4
  %8 = call ptr @lj_lib_checkLproto(ptr noundef %7, i32 noundef 1, i32 noundef 0)
  store ptr %8, ptr %4, align 8, !tbaa !70
  call void @llvm.lifetime.start.p0(i64 4, ptr %5) #9
  %9 = load ptr, ptr %3, align 8, !tbaa !4
  %10 = call i32 @lj_lib_checkint(ptr noundef %9, i32 noundef 2)
  store i32 %10, ptr %5, align 4, !tbaa !35
  %11 = load i32, ptr %5, align 4, !tbaa !35
  %12 = load ptr, ptr %4, align 8, !tbaa !70
  %13 = getelementptr inbounds nuw %struct.GCproto, ptr %12, i32 0, i32 13
  %14 = load i8, ptr %13, align 4, !tbaa !79
  %15 = zext i8 %14 to i32
  %16 = icmp ult i32 %11, %15
  br i1 %16, label %17, label %32

17:                                               ; preds = %1
  %18 = load ptr, ptr %3, align 8, !tbaa !4
  %19 = load ptr, ptr %3, align 8, !tbaa !4
  %20 = getelementptr inbounds nuw %struct.lua_State, ptr %19, i32 0, i32 8
  %21 = load ptr, ptr %20, align 8, !tbaa !16
  %22 = getelementptr inbounds %union.TValue, ptr %21, i64 -1
  %23 = load ptr, ptr %3, align 8, !tbaa !4
  %24 = load ptr, ptr %4, align 8, !tbaa !70
  %25 = load i32, ptr %5, align 4, !tbaa !35
  %26 = call ptr @lj_debug_uvname(ptr noundef %24, i32 noundef %25)
  %27 = load ptr, ptr %4, align 8, !tbaa !70
  %28 = load i32, ptr %5, align 4, !tbaa !35
  %29 = call ptr @lj_debug_uvname(ptr noundef %27, i32 noundef %28)
  %30 = call i64 @strlen(ptr noundef %29) #12
  %31 = call ptr @lj_str_new(ptr noundef %23, ptr noundef %26, i64 noundef %30)
  call void @setstrV(ptr noundef %18, ptr noundef %22, ptr noundef %31)
  store i32 1, ptr %2, align 4
  store i32 1, ptr %6, align 4
  br label %33

32:                                               ; preds = %1
  store i32 0, ptr %2, align 4
  store i32 1, ptr %6, align 4
  br label %33

33:                                               ; preds = %32, %17
  call void @llvm.lifetime.end.p0(i64 4, ptr %5) #9
  call void @llvm.lifetime.end.p0(i64 8, ptr %4) #9
  %34 = load i32, ptr %2, align 4
  ret i32 %34
}