; Function Attrs: nounwind uwtable
define internal range(i32 0, 2) i32 @lj_cf_jit_util_funcuvname(ptr noundef %0) #0 {
  %2 = tail call ptr @lj_lib_checkLproto(ptr noundef %0, i32 noundef 1, i32 noundef 0) #8
  %3 = tail call i32 @lj_lib_checkint(ptr noundef %0, i32 noundef 2) #8
  %4 = getelementptr inbounds nuw i8, ptr %2, i64 60
  %5 = load i8, ptr %4, align 4, !tbaa !65
  %6 = zext i8 %5 to i32
  %7 = icmp ult i32 %3, %6
  br i1 %7, label %8, label %18

8:                                                ; preds = %1
  %9 = getelementptr inbounds nuw i8, ptr %0, i64 40
  %10 = load ptr, ptr %9, align 8, !tbaa !32
  %11 = getelementptr inbounds i8, ptr %10, i64 -8
  %12 = tail call ptr @lj_debug_uvname(ptr noundef nonnull %2, i32 noundef %3) #8
  %13 = tail call ptr @lj_debug_uvname(ptr noundef nonnull %2, i32 noundef %3) #8
  %14 = tail call i64 @strlen(ptr noundef nonnull dereferenceable(1) %13) #11
  %15 = tail call ptr @lj_str_new(ptr noundef %0, ptr noundef %12, i64 noundef %14) #8
  %16 = ptrtoint ptr %15 to i64
  %17 = or i64 %16, -703687441776640
  store i64 %17, ptr %11, align 8, !tbaa !34
  br label %18

18:                                               ; preds = %1, %8
  %.0 = phi i32 [ 1, %8 ], [ 0, %1 ]
  ret i32 %.0
}